; Function Attrs: nounwind uwtable
define internal { i64, ptr } @f_keys_unsorted(ptr readnone captures(none) %0, i64 %1, ptr %2) #0 {
  %4 = alloca [15 x i8], align 1
  %5 = tail call i32 @jv_get_kind(i64 %1, ptr %2) #14
  %6 = icmp eq i32 %5, 7
  br i1 %6, label %10, label %7

7:                                                ; preds = %3
  %8 = tail call i32 @jv_get_kind(i64 %1, ptr %2) #14
  %9 = icmp eq i32 %8, 6
  br i1 %9, label %10, label %12

10:                                               ; preds = %7, %3
  %11 = tail call { i64, ptr } @jv_keys_unsorted(i64 %1, ptr %2) #14
  br label %20

12:                                               ; preds = %7
  call void @llvm.lifetime.start.p0(i64 15, ptr nonnull %4) #14
  %13 = tail call i32 @jv_get_kind(i64 %1, ptr %2) #14
  %14 = tail call ptr @jv_kind_name(i32 noundef %13) #14
  %15 = call ptr @jv_dump_string_trunc(i64 %1, ptr %2, ptr noundef nonnull %4, i64 noundef 15) #14
  %16 = call { i64, ptr } (ptr, ...) @jv_string_fmt(ptr noundef nonnull @.str.155, ptr noundef %14, ptr noundef %15, ptr noundef nonnull @.str.159) #14
  %17 = extractvalue { i64, ptr } %16, 0
  %18 = extractvalue { i64, ptr } %16, 1
  %19 = call { i64, ptr } @jv_invalid_with_msg(i64 %17, ptr %18) #14
  call void @llvm.lifetime.end.p0(i64 15, ptr nonnull %4) #14
  br label %20

20:                                               ; preds = %12, %10
  %.pn = phi { i64, ptr } [ %11, %10 ], [ %19, %12 ]
  ret { i64, ptr } %.pn
}